target datalayout = "e-m:e-p270:32:32-p271:32:32-p272:64:64-i64:64-i128:128-f80:128-n8:16:32:64-S128"
target triple = "x86_64-pc-linux-gnu"

%struct.PSH_GlyphRec_ = type { i32, i32, ptr, ptr, ptr, ptr, ptr, [2 x %struct.PSH_Hint_TableRec_], i8, i8, i8, i8, i8 }
%struct.PSH_Hint_TableRec_ = type { i32, i32, ptr, ptr, ptr, i32, ptr, ptr, ptr, ptr }
%struct.PSH_GlobalsRec_ = type { ptr, [2 x %struct.PSH_DimensionRec_], %struct.PSH_BluesRec_ }
%struct.PSH_DimensionRec_ = type { %struct.PSH_WidthsRec_, i64, i64 }
%struct.PSH_WidthsRec_ = type { i32, [16 x %struct.PSH_WidthRec_] }
%struct.PSH_WidthRec_ = type { i32, i64, i64 }
%struct.PSH_BluesRec_ = type { %struct.PSH_Blue_TableRec_, %struct.PSH_Blue_TableRec_, %struct.PSH_Blue_TableRec_, %struct.PSH_Blue_TableRec_, i64, i32, i32, i32, i8 }
%struct.PSH_Blue_TableRec_ = type { i32, [16 x %struct.PSH_Blue_ZoneRec_] }
%struct.PSH_Blue_ZoneRec_ = type { i32, i32, i32, i32, i64, i64, i64, i64 }
%struct.PSH_PointRec_ = type { ptr, ptr, ptr, i32, i32, i32, i32, ptr, i64, i64, i64 }
%struct.PSH_HintRec_ = type { i32, i32, i64, i64, i32, ptr, i32 }

; Function Attrs: nounwind uwtable
define internal i32 @FT_MulFix_x86_64(i32 noundef %0, i32 noundef %1) #0 {
  %3 = alloca i32, align 4
  %4 = alloca i32, align 4
  %5 = alloca i64, align 8
  %6 = alloca i64, align 8
  store i32 %0, ptr %3, align 4
  store i32 %1, ptr %4, align 4
  %7 = load i32, ptr %3, align 4
  %8 = sext i32 %7 to i64
  %9 = load i32, ptr %4, align 4
  %10 = sext i32 %9 to i64
  %11 = mul nsw i64 %8, %10
  store i64 %11, ptr %5, align 8
  %12 = load i64, ptr %5, align 8
  %13 = ashr i64 %12, 63
  store i64 %13, ptr %6, align 8
  %14 = load i64, ptr %6, align 8
  %15 = add nsw i64 32768, %14
  %16 = load i64, ptr %5, align 8
  %17 = add nsw i64 %16, %15
  store i64 %17, ptr %5, align 8
  %18 = load i64, ptr %5, align 8
  %19 = ashr i64 %18, 16
  %20 = trunc i64 %19 to i32
  ret i32 %20
}

; Function Attrs: nounwind uwtable
define internal void @psh_glyph_interpolate_strong_points(ptr noundef %0, i32 noundef %1) #0 {
  %3 = alloca ptr, align 8
  %4 = alloca i32, align 4
  %5 = alloca ptr, align 8
  %6 = alloca i64, align 8
  %7 = alloca i32, align 4
  %8 = alloca ptr, align 8
  %9 = alloca ptr, align 8
  %10 = alloca i64, align 8
  store ptr %0, ptr %3, align 8
  store i32 %1, ptr %4, align 4
  %11 = load ptr, ptr %3, align 8
  %12 = getelementptr inbounds %struct.PSH_GlyphRec_, ptr %11, i32 0, i32 6
  %13 = load ptr, ptr %12, align 8
  %14 = getelementptr inbounds %struct.PSH_GlobalsRec_, ptr %13, i32 0, i32 1
  %15 = load i32, ptr %4, align 4
  %16 = sext i32 %15 to i64
  %17 = getelementptr inbounds [2 x %struct.PSH_DimensionRec_], ptr %14, i64 0, i64 %16
  store ptr %17, ptr %5, align 8
  %18 = load ptr, ptr %5, align 8
  %19 = getelementptr inbounds %struct.PSH_DimensionRec_, ptr %18, i32 0, i32 1
  %20 = load i64, ptr %19, align 8
  store i64 %20, ptr %6, align 8
  %21 = load ptr, ptr %3, align 8
  %22 = getelementptr inbounds %struct.PSH_GlyphRec_, ptr %21, i32 0, i32 0
  %23 = load i32, ptr %22, align 8
  store i32 %23, ptr %7, align 4
  %24 = load ptr, ptr %3, align 8
  %25 = getelementptr inbounds %struct.PSH_GlyphRec_, ptr %24, i32 0, i32 2
  %26 = load ptr, ptr %25, align 8
  store ptr %26, ptr %8, align 8
  br label %27

27:                                               ; preds = %142, %2
  %28 = load i32, ptr %7, align 4
  %29 = icmp ugt i32 %28, 0
  br i1 %29, label %30, label %147

30:                                               ; preds = %27
  %31 = load ptr, ptr %8, align 8
  %32 = getelementptr inbounds %struct.PSH_PointRec_, ptr %31, i32 0, i32 7
  %33 = load ptr, ptr %32, align 8
  store ptr %33, ptr %9, align 8
  %34 = load ptr, ptr %9, align 8
  %35 = icmp ne ptr %34, null
  br i1 %35, label %36, label %141

36:                                               ; preds = %30
  %37 = load ptr, ptr %8, align 8
  %38 = getelementptr inbounds %struct.PSH_PointRec_, ptr %37, i32 0, i32 4
  %39 = load i32, ptr %38, align 4
  %40 = and i32 %39, 512
  %41 = icmp ne i32 %40, 0
  br i1 %41, label %42, label %48

42:                                               ; preds = %36
  %43 = load ptr, ptr %9, align 8
  %44 = getelementptr inbounds %struct.PSH_HintRec_, ptr %43, i32 0, i32 2
  %45 = load i64, ptr %44, align 8
  %46 = load ptr, ptr %8, align 8
  %47 = getelementptr inbounds %struct.PSH_PointRec_, ptr %46, i32 0, i32 10
  store i64 %45, ptr %47, align 8
  br label %136

48:                                               ; preds = %36
  %49 = load ptr, ptr %8, align 8
  %50 = getelementptr inbounds %struct.PSH_PointRec_, ptr %49, i32 0, i32 4
  %51 = load i32, ptr %50, align 4
  %52 = and i32 %51, 1024
  %53 = icmp ne i32 %52, 0
  br i1 %53, label %54, label %64

54:                                               ; preds = %48
  %55 = load ptr, ptr %9, align 8
  %56 = getelementptr inbounds %struct.PSH_HintRec_, ptr %55, i32 0, i32 2
  %57 = load i64, ptr %56, align 8
  %58 = load ptr, ptr %9, align 8
  %59 = getelementptr inbounds %struct.PSH_HintRec_, ptr %58, i32 0, i32 3
  %60 = load i64, ptr %59, align 8
  %61 = add nsw i64 %57, %60
  %62 = load ptr, ptr %8, align 8
  %63 = getelementptr inbounds %struct.PSH_PointRec_, ptr %62, i32 0, i32 10
  store i64 %61, ptr %63, align 8
  br label %135

64:                                               ; preds = %48
  %65 = load ptr, ptr %8, align 8
  %66 = getelementptr inbounds %struct.PSH_PointRec_, ptr %65, i32 0, i32 8
  %67 = load i64, ptr %66, align 8
  %68 = load ptr, ptr %9, align 8
  %69 = getelementptr inbounds %struct.PSH_HintRec_, ptr %68, i32 0, i32 0
  %70 = load i32, ptr %69, align 8
  %71 = sext i32 %70 to i64
  %72 = sub nsw i64 %67, %71
  store i64 %72, ptr %10, align 8
  %73 = load i64, ptr %10, align 8
  %74 = icmp sle i64 %73, 0
  br i1 %74, label %75, label %88

75:                                               ; preds = %64
  %76 = load ptr, ptr %9, align 8
  %77 = getelementptr inbounds %struct.PSH_HintRec_, ptr %76, i32 0, i32 2
  %78 = load i64, ptr %77, align 8
  %79 = load i64, ptr %10, align 8
  %80 = trunc i64 %79 to i32
  %81 = load i64, ptr %6, align 8
  %82 = trunc i64 %81 to i32
  %83 = call i32 @FT_MulFix_x86_64(i32 noundef %80, i32 noundef %82)
  %84 = sext i32 %83 to i64
  %85 = add nsw i64 %78, %84
  %86 = load ptr, ptr %8, align 8
  %87 = getelementptr inbounds %struct.PSH_PointRec_, ptr %86, i32 0, i32 10
  store i64 %85, ptr %87, align 8
  br label %134

88:                                               ; preds = %64
  %89 = load i64, ptr %10, align 8
  %90 = load ptr, ptr %9, align 8
  %91 = getelementptr inbounds %struct.PSH_HintRec_, ptr %90, i32 0, i32 1
  %92 = load i32, ptr %91, align 4
  %93 = sext i32 %92 to i64
  %94 = icmp sge i64 %89, %93
  br i1 %94, label %95, label %117

95:                                               ; preds = %88
  %96 = load ptr, ptr %9, align 8
  %97 = getelementptr inbounds %struct.PSH_HintRec_, ptr %96, i32 0, i32 2
  %98 = load i64, ptr %97, align 8
  %99 = load ptr, ptr %9, align 8
  %100 = getelementptr inbounds %struct.PSH_HintRec_, ptr %99, i32 0, i32 3
  %101 = load i64, ptr %100, align 8
  %102 = add nsw i64 %98, %101
  %103 = load i64, ptr %10, align 8
  %104 = load ptr, ptr %9, align 8
  %105 = getelementptr inbounds %struct.PSH_HintRec_, ptr %104, i32 0, i32 1
  %106 = load i32, ptr %105, align 4
  %107 = sext i32 %106 to i64
  %108 = sub nsw i64 %103, %107
  %109 = trunc i64 %108 to i32
  %110 = load i64, ptr %6, align 8
  %111 = trunc i64 %110 to i32
  %112 = call i32 @FT_MulFix_x86_64(i32 noundef %109, i32 noundef %111)
  %113 = sext i32 %112 to i64
  %114 = add nsw i64 %102, %113
  %115 = load ptr, ptr %8, align 8
  %116 = getelementptr inbounds %struct.PSH_PointRec_, ptr %115, i32 0, i32 10
  store i64 %114, ptr %116, align 8
  br label %133

117:                                              ; preds = %88
  %118 = load ptr, ptr %9, align 8
  %119 = getelementptr inbounds %struct.PSH_HintRec_, ptr %118, i32 0, i32 2
  %120 = load i64, ptr %119, align 8
  %121 = load i64, ptr %10, align 8
  %122 = load ptr, ptr %9, align 8
  %123 = getelementptr inbounds %struct.PSH_HintRec_, ptr %122, i32 0, i32 3
  %124 = load i64, ptr %123, align 8
  %125 = load ptr, ptr %9, align 8
  %126 = getelementptr inbounds %struct.PSH_HintRec_, ptr %125, i32 0, i32 1
  %127 = load i32, ptr %126, align 4
  %128 = sext i32 %127 to i64
  %129 = call i64 @FT_MulDiv(i64 noundef %121, i64 noundef %124, i64 noundef %128)
  %130 = add nsw i64 %120, %129
  %131 = load ptr, ptr %8, align 8
  %132 = getelementptr inbounds %struct.PSH_PointRec_, ptr %131, i32 0, i32 10
  store i64 %130, ptr %132, align 8
  br label %133

133:                                              ; preds = %117, %95
  br label %134

134:                                              ; preds = %133, %75
  br label %135

135:                                              ; preds = %134, %54
  br label %136

136:                                              ; preds = %135, %42
  %137 = load ptr, ptr %8, align 8
  %138 = getelementptr inbounds %struct.PSH_PointRec_, ptr %137, i32 0, i32 4
  %139 = load i32, ptr %138, align 4
  %140 = or i32 %139, 32
  store i32 %140, ptr %138, align 4
  br label %141

141:                                              ; preds = %136, %30
  br label %142

142:                                              ; preds = %141
  %143 = load i32, ptr %7, align 4
  %144 = add i32 %143, -1
  store i32 %144, ptr %7, align 4
  %145 = load ptr, ptr %8, align 8
  %146 = getelementptr inbounds %struct.PSH_PointRec_, ptr %145, i32 1
  store ptr %146, ptr %8, align 8
  br label %27, !llvm.loop !23

147:                                              ; preds = %27
  ret void
}