; Function Attrs: nounwind uwtable
define internal fastcc void @psh_glyph_interpolate_strong_points(ptr nocapture noundef readonly %0, i32 noundef %1) unnamed_addr #0 {
  %3 = load i32, ptr %0, align 8
  %.not50 = icmp eq i32 %3, 0
  br i1 %.not50, label %._crit_edge, label %.lr.ph

.lr.ph:                                           ; preds = %2
  %4 = getelementptr inbounds i8, ptr %0, i64 8
  %5 = load ptr, ptr %4, align 8
  %6 = getelementptr inbounds i8, ptr %0, i64 40
  %7 = load ptr, ptr %6, align 8
  %8 = getelementptr inbounds i8, ptr %7, i64 8
  %9 = zext nneg i32 %1 to i64
  %10 = getelementptr inbounds [2 x %struct.PSH_DimensionRec_], ptr %8, i64 0, i64 %9, i32 1
  %11 = load i64, ptr %10, align 8
  %sext = shl i64 %11, 32
  %12 = ashr exact i64 %sext, 32
  br label %13

13:                                               ; preds = %.lr.ph, %80
  %.052 = phi i32 [ %3, %.lr.ph ], [ %81, %80 ]
  %.03751 = phi ptr [ %5, %.lr.ph ], [ %82, %80 ]
  %14 = getelementptr inbounds i8, ptr %.03751, i64 40
  %15 = load ptr, ptr %14, align 8
  %.not42 = icmp eq ptr %15, null
  br i1 %.not42, label %80, label %16

16:                                               ; preds = %13
  %17 = getelementptr inbounds i8, ptr %.03751, i64 28
  %18 = load i32, ptr %17, align 4
  %19 = and i32 %18, 512
  %.not43 = icmp eq i32 %19, 0
  br i1 %.not43, label %24, label %20

20:                                               ; preds = %16
  %21 = getelementptr inbounds i8, ptr %15, i64 8
  %22 = load i64, ptr %21, align 8
  %23 = getelementptr inbounds i8, ptr %.03751, i64 64
  store i64 %22, ptr %23, align 8
  br label %77

24:                                               ; preds = %16
  %25 = and i32 %18, 1024
  %.not44 = icmp eq i32 %25, 0
  br i1 %.not44, label %33, label %26

26:                                               ; preds = %24
  %27 = getelementptr inbounds i8, ptr %15, i64 8
  %28 = load i64, ptr %27, align 8
  %29 = getelementptr inbounds i8, ptr %15, i64 16
  %30 = load i64, ptr %29, align 8
  %31 = add nsw i64 %30, %28
  %32 = getelementptr inbounds i8, ptr %.03751, i64 64
  store i64 %31, ptr %32, align 8
  br label %77

33:                                               ; preds = %24
  %34 = getelementptr inbounds i8, ptr %.03751, i64 48
  %35 = load i64, ptr %34, align 8
  %36 = load i32, ptr %15, align 8
  %37 = sext i32 %36 to i64
  %38 = sub nsw i64 %35, %37
  %39 = icmp slt i64 %38, 1
  br i1 %39, label %40, label %52

40:                                               ; preds = %33
  %41 = getelementptr inbounds i8, ptr %15, i64 8
  %42 = load i64, ptr %41, align 8
  %sext47 = shl i64 %38, 32
  %43 = ashr exact i64 %sext47, 32
  %44 = mul nsw i64 %43, %12
  %45 = ashr i64 %44, 63
  %46 = add nsw i64 %44, 32768
  %47 = add nsw i64 %46, %45
  %48 = shl i64 %47, 16
  %49 = ashr i64 %48, 32
  %50 = add nsw i64 %42, %49
  %51 = getelementptr inbounds i8, ptr %.03751, i64 64
  store i64 %50, ptr %51, align 8
  br label %77

52:                                               ; preds = %33
  %53 = getelementptr inbounds i8, ptr %15, i64 4
  %54 = load i32, ptr %53, align 4
  %55 = sext i32 %54 to i64
  %.not45 = icmp slt i64 %38, %55
  %56 = getelementptr inbounds i8, ptr %15, i64 8
  %57 = load i64, ptr %56, align 8
  %58 = getelementptr inbounds i8, ptr %15, i64 16
  %59 = load i64, ptr %58, align 8
  br i1 %.not45, label %73, label %60

60:                                               ; preds = %52
  %61 = trunc i64 %38 to i32
  %62 = sub i32 %61, %54
  %63 = sext i32 %62 to i64
  %64 = mul nsw i64 %12, %63
  %65 = ashr i64 %64, 63
  %66 = add nsw i64 %64, 32768
  %67 = add nsw i64 %66, %65
  %68 = shl i64 %67, 16
  %69 = ashr i64 %68, 32
  %70 = add i64 %57, %69
  %71 = add i64 %70, %59
  %72 = getelementptr inbounds i8, ptr %.03751, i64 64
  store i64 %71, ptr %72, align 8
  br label %77

73:                                               ; preds = %52
  %74 = tail call i64 @FT_MulDiv(i64 noundef %38, i64 noundef %59, i64 noundef %55) #11
  %75 = add nsw i64 %74, %57
  %76 = getelementptr inbounds i8, ptr %.03751, i64 64
  store i64 %75, ptr %76, align 8
  %.pre = load i32, ptr %17, align 4
  br label %77

77:                                               ; preds = %26, %60, %73, %40, %20
  %78 = phi i32 [ %18, %26 ], [ %18, %60 ], [ %.pre, %73 ], [ %18, %40 ], [ %18, %20 ]
  %79 = or i32 %78, 32
  store i32 %79, ptr %17, align 4
  br label %80

80:                                               ; preds = %13, %77
  %81 = add i32 %.052, -1
  %82 = getelementptr inbounds i8, ptr %.03751, i64 72
  %.not = icmp eq i32 %81, 0
  br i1 %.not, label %._crit_edge, label %13, !llvm.loop !43

._crit_edge:                                      ; preds = %80, %2
  ret void
}